; Function Attrs: mustprogress uwtable
define internal { double, double } @_ZL14airy_s_forward5PJ_LPP8PJconsts(double %0, double %1, ptr noundef %2) #0 {
  %4 = getelementptr inbounds i8, ptr %2, i64 88
  %5 = load ptr, ptr %4, align 8
  %6 = tail call double @sin(double noundef %0) #6
  %7 = tail call double @cos(double noundef %0) #6
  %8 = getelementptr inbounds i8, ptr %5, i64 32
  %9 = load i32, ptr %8, align 8
  switch i32 %9, label %101 [
    i32 2, label %10
    i32 3, label %10
    i32 1, label %73
    i32 0, label %73
  ]

10:                                               ; preds = %3, %3
  %11 = tail call double @sin(double noundef %1) #6
  %12 = tail call double @cos(double noundef %1) #6
  %13 = fmul double %7, %12
  %14 = load i32, ptr %8, align 8
  %15 = icmp eq i32 %14, 3
  br i1 %15, label %16, label %23

16:                                               ; preds = %10
  %17 = getelementptr inbounds i8, ptr %5, i64 8
  %18 = load double, ptr %17, align 8
  %19 = getelementptr inbounds i8, ptr %5, i64 16
  %20 = load double, ptr %19, align 8
  %21 = fmul double %13, %20
  %22 = tail call double @llvm.fmuladd.f64(double %18, double %11, double %21)
  br label %23

23:                                               ; preds = %16, %10
  %.0 = phi double [ %22, %16 ], [ %13, %10 ]
  %24 = getelementptr inbounds i8, ptr %5, i64 36
  %25 = load i32, ptr %24, align 4
  %26 = icmp eq i32 %25, 0
  %27 = fcmp olt double %.0, -1.000000e-10
  %or.cond = select i1 %26, i1 %27, i1 false
  br i1 %or.cond, label %28, label %30

28:                                               ; preds = %23
  %29 = tail call i32 @proj_errno_set(ptr noundef nonnull %2, i32 noundef 2050)
  br label %101

30:                                               ; preds = %23
  %31 = fsub double 1.000000e+00, %.0
  %32 = tail call double @llvm.fabs.f64(double %31)
  %33 = fcmp ogt double %32, 1.000000e-10
  br i1 %33, label %34, label %52

34:                                               ; preds = %30
  %35 = fadd double %.0, 1.000000e+00
  %36 = fmul double %35, 5.000000e-01
  %37 = fcmp oeq double %36, 0.000000e+00
  br i1 %37, label %38, label %40

38:                                               ; preds = %34
  %39 = tail call i32 @proj_errno_set(ptr noundef nonnull %2, i32 noundef 2050)
  br label %101

40:                                               ; preds = %34
  %41 = tail call double @log(double noundef %36) #6
  %42 = fneg double %41
  %43 = getelementptr inbounds i8, ptr %5, i64 24
  %44 = load double, ptr %43, align 8
  %45 = insertelement <2 x double> poison, double %42, i64 0
  %46 = insertelement <2 x double> %45, double %44, i64 1
  %47 = insertelement <2 x double> poison, double %31, i64 0
  %48 = insertelement <2 x double> %47, double %36, i64 1
  %49 = fdiv <2 x double> %46, %48
  %shift = shufflevector <2 x double> %49, <2 x double> poison, <2 x i32> <i32 1, i32 poison>
  %50 = fsub <2 x double> %49, %shift
  %51 = extractelement <2 x double> %50, i64 0
  %.pre = load i32, ptr %8, align 8
  br label %56

52:                                               ; preds = %30
  %53 = getelementptr inbounds i8, ptr %5, i64 24
  %54 = load double, ptr %53, align 8
  %55 = fsub double 5.000000e-01, %54
  br label %56

56:                                               ; preds = %52, %40
  %57 = phi i32 [ %.pre, %40 ], [ %14, %52 ]
  %.055 = phi double [ %51, %40 ], [ %55, %52 ]
  %58 = fmul double %12, %.055
  %59 = fmul double %6, %58
  %60 = icmp eq i32 %57, 3
  br i1 %60, label %61, label %71

61:                                               ; preds = %56
  %62 = getelementptr inbounds i8, ptr %5, i64 16
  %63 = load double, ptr %62, align 8
  %64 = getelementptr inbounds i8, ptr %5, i64 8
  %65 = load double, ptr %64, align 8
  %66 = fneg double %65
  %67 = fmul double %12, %66
  %68 = fmul double %7, %67
  %69 = tail call double @llvm.fmuladd.f64(double %63, double %11, double %68)
  %70 = fmul double %.055, %69
  br label %101

71:                                               ; preds = %56
  %72 = fmul double %11, %.055
  br label %101

73:                                               ; preds = %3, %3
  %74 = load double, ptr %5, align 8
  %75 = fsub double %74, %1
  %76 = tail call double @llvm.fabs.f64(double %75)
  %77 = getelementptr inbounds i8, ptr %5, i64 36
  %78 = load i32, ptr %77, align 4
  %.not = icmp eq i32 %78, 0
  %79 = fadd double %76, -1.000000e-10
  %80 = fcmp ogt double %79, 0x3FF921FB54442D18
  %or.cond59 = select i1 %.not, i1 %80, i1 false
  br i1 %or.cond59, label %81, label %83

81:                                               ; preds = %73
  %82 = tail call i32 @proj_errno_set(ptr noundef nonnull %2, i32 noundef 2050)
  br label %101

83:                                               ; preds = %73
  %84 = fmul double %76, 5.000000e-01
  %85 = fcmp ogt double %84, 1.000000e-10
  br i1 %85, label %86, label %101

86:                                               ; preds = %83
  %87 = tail call double @tan(double noundef %84) #6
  %88 = tail call double @cos(double noundef %84) #6
  %89 = tail call double @log(double noundef %88) #6
  %90 = fdiv double %89, %87
  %91 = getelementptr inbounds i8, ptr %5, i64 24
  %92 = load double, ptr %91, align 8
  %93 = tail call double @llvm.fmuladd.f64(double %87, double %92, double %90)
  %94 = fmul double %93, -2.000000e+00
  %95 = fmul double %6, %94
  %96 = fmul double %7, %94
  %97 = load i32, ptr %8, align 8
  %98 = icmp eq i32 %97, 0
  br i1 %98, label %99, label %101

99:                                               ; preds = %86
  %100 = fneg double %96
  br label %101

101:                                              ; preds = %83, %3, %71, %61, %86, %99, %81, %38, %28
  %.sroa.5.0 = phi double [ 0.000000e+00, %3 ], [ %100, %99 ], [ %96, %86 ], [ 0.000000e+00, %81 ], [ 0.000000e+00, %28 ], [ 0.000000e+00, %38 ], [ %70, %61 ], [ %72, %71 ], [ 0.000000e+00, %83 ]
  %.sroa.054.0 = phi double [ 0.000000e+00, %3 ], [ %95, %99 ], [ %95, %86 ], [ 0.000000e+00, %81 ], [ 0.000000e+00, %28 ], [ 0.000000e+00, %38 ], [ %59, %61 ], [ %59, %71 ], [ 0.000000e+00, %83 ]
  %.fca.0.insert = insertvalue { double, double } poison, double %.sroa.054.0, 0
  %.fca.1.insert = insertvalue { double, double } %.fca.0.insert, double %.sroa.5.0, 1
  ret { double, double } %.fca.1.insert
}